target datalayout = "e-m:e-p270:32:32-p271:32:32-p272:64:64-i64:64-i128:128-f80:128-n8:16:32:64-S128"
target triple = "x86_64-pc-linux-gnu"

@UseG1GC = external global i8, align 1
@UseParallelGC = external global i8, align 1
@UseZGC = external global i8, align 1
@ZGenerational = external global i8, align 1
@UseShenandoahGC = external global i8, align 1

; Function Attrs: mustprogress nounwind uwtable
define hidden noundef i32 @_ZNK15GCConfiguration15young_collectorEv(ptr noundef nonnull align 1 dereferenceable(1) %0) #1 align 2 {
  %2 = alloca i32, align 4
  %3 = alloca ptr, align 8
  store ptr %0, ptr %3, align 8
  %4 = load i8, ptr @UseG1GC, align 1
  %5 = trunc i8 %4 to i1
  br i1 %5, label %6, label %7

6:                                                ; preds = %1
  store i32 4, ptr %2, align 4
  br label %24

7:                                                ; preds = %1
  %8 = load i8, ptr @UseParallelGC, align 1
  %9 = trunc i8 %8 to i1
  br i1 %9, label %10, label %11

10:                                               ; preds = %7
  store i32 2, ptr %2, align 4
  br label %24

11:                                               ; preds = %7
  %12 = load i8, ptr @UseZGC, align 1
  %13 = trunc i8 %12 to i1
  br i1 %13, label %14, label %19

14:                                               ; preds = %11
  %15 = load i8, ptr @ZGenerational, align 1
  %16 = trunc i8 %15 to i1
  br i1 %16, label %17, label %18

17:                                               ; preds = %14
  store i32 7, ptr %2, align 4
  br label %24

18:                                               ; preds = %14
  store i32 11, ptr %2, align 4
  br label %24

19:                                               ; preds = %11
  %20 = load i8, ptr @UseShenandoahGC, align 1
  %21 = trunc i8 %20 to i1
  br i1 %21, label %22, label %23

22:                                               ; preds = %19
  store i32 11, ptr %2, align 4
  br label %24

23:                                               ; preds = %19
  store i32 3, ptr %2, align 4
  br label %24

24:                                               ; preds = %23, %22, %18, %17, %10, %6
  %25 = load i32, ptr %2, align 4
  ret i32 %25
}