; Function Attrs: mustprogress nofree norecurse nosync nounwind willreturn memory(read, argmem: none, inaccessiblemem: none) uwtable
define hidden noundef range(i32 2, 12) i32 @_ZNK15GCConfiguration15young_collectorEv(ptr nocapture noundef nonnull readnone align 1 dereferenceable(1) %0) local_unnamed_addr #0 align 2 {
  %2 = load i8, ptr @UseG1GC, align 1
  %3 = trunc i8 %2 to i1
  br i1 %3, label %16, label %4

4:                                                ; preds = %1
  %5 = load i8, ptr @UseParallelGC, align 1
  %6 = trunc i8 %5 to i1
  br i1 %6, label %16, label %7

7:                                                ; preds = %4
  %8 = load i8, ptr @UseZGC, align 1
  %9 = trunc i8 %8 to i1
  br i1 %9, label %10, label %13

10:                                               ; preds = %7
  %11 = load i8, ptr @ZGenerational, align 1
  %12 = trunc i8 %11 to i1
  %. = select i1 %12, i32 7, i32 11
  br label %16

13:                                               ; preds = %7
  %14 = load i8, ptr @UseShenandoahGC, align 1
  %15 = trunc i8 %14 to i1
  %.1 = select i1 %15, i32 11, i32 3
  br label %16

16:                                               ; preds = %13, %10, %4, %1
  %.0 = phi i32 [ 4, %1 ], [ 2, %4 ], [ %., %10 ], [ %.1, %13 ]
  ret i32 %.0
}